target datalayout = "e-m:e-p270:32:32-p271:32:32-p272:64:64-i64:64-i128:128-f80:128-n8:16:32:64-S128"
target triple = "x86_64-pc-linux-gnu"

%struct.stat = type { i64, i64, i64, i32, i32, i32, i32, i64, i64, i64, i64, %struct.timespec, %struct.timespec, %struct.timespec, [3 x i64] }
%struct.timespec = type { i64, i64 }

@.str.16 = private unnamed_addr constant [8 x i8] c"file://\00", align 1
@.str.18 = private unnamed_addr constant [3 x i8] c"%s\00", align 1

; Function Attrs: nounwind uwtable
define internal i32 @php_plain_files_rename(ptr noundef %0, ptr noundef %1, ptr noundef %2, i32 noundef %3, ptr noundef %4) #0 {
  %6 = alloca i32, align 4
  %7 = alloca ptr, align 8
  %8 = alloca ptr, align 8
  %9 = alloca ptr, align 8
  %10 = alloca i32, align 4
  %11 = alloca ptr, align 8
  %12 = alloca i32, align 4
  %13 = alloca i32, align 4
  %14 = alloca %struct.stat, align 8
  %15 = alloca i32, align 4
  %16 = alloca i32, align 4
  store ptr %0, ptr %7, align 8, !tbaa !71
  store ptr %1, ptr %8, align 8, !tbaa !4
  store ptr %2, ptr %9, align 8, !tbaa !4
  store i32 %3, ptr %10, align 4, !tbaa !12
  store ptr %4, ptr %11, align 8, !tbaa !72
  call void @llvm.lifetime.start.p0(i64 4, ptr %12) #13
  %17 = load ptr, ptr %8, align 8, !tbaa !4
  %18 = icmp ne ptr %17, null
  br i1 %18, label %19, label %22

19:                                               ; preds = %5
  %20 = load ptr, ptr %9, align 8, !tbaa !4
  %21 = icmp ne ptr %20, null
  br i1 %21, label %23, label %22

22:                                               ; preds = %19, %5
  store i32 0, ptr %6, align 4
  store i32 1, ptr %13, align 4
  br label %137

23:                                               ; preds = %19
  %24 = load ptr, ptr %8, align 8, !tbaa !4
  %25 = call i32 @strncasecmp(ptr noundef %24, ptr noundef @.str.16, i64 noundef 7) #14
  %26 = icmp eq i32 %25, 0
  br i1 %26, label %27, label %30

27:                                               ; preds = %23
  %28 = load ptr, ptr %8, align 8, !tbaa !4
  %29 = getelementptr inbounds nuw i8, ptr %28, i64 7
  store ptr %29, ptr %8, align 8, !tbaa !4
  br label %30

30:                                               ; preds = %27, %23
  %31 = load ptr, ptr %9, align 8, !tbaa !4
  %32 = call i32 @strncasecmp(ptr noundef %31, ptr noundef @.str.16, i64 noundef 7) #14
  %33 = icmp eq i32 %32, 0
  br i1 %33, label %34, label %37

34:                                               ; preds = %30
  %35 = load ptr, ptr %9, align 8, !tbaa !4
  %36 = getelementptr inbounds nuw i8, ptr %35, i64 7
  store ptr %36, ptr %9, align 8, !tbaa !4
  br label %37

37:                                               ; preds = %34, %30
  %38 = load ptr, ptr %8, align 8, !tbaa !4
  %39 = call i32 @php_check_open_basedir(ptr noundef %38)
  %40 = icmp ne i32 %39, 0
  br i1 %40, label %45, label %41

41:                                               ; preds = %37
  %42 = load ptr, ptr %9, align 8, !tbaa !4
  %43 = call i32 @php_check_open_basedir(ptr noundef %42)
  %44 = icmp ne i32 %43, 0
  br i1 %44, label %45, label %46

45:                                               ; preds = %41, %37
  store i32 0, ptr %6, align 4
  store i32 1, ptr %13, align 4
  br label %137

46:                                               ; preds = %41
  %47 = load ptr, ptr %8, align 8, !tbaa !4
  %48 = load ptr, ptr %9, align 8, !tbaa !4
  %49 = call i32 @rename(ptr noundef %47, ptr noundef %48) #13
  store i32 %49, ptr %12, align 4, !tbaa !12
  %50 = load i32, ptr %12, align 4, !tbaa !12
  %51 = icmp eq i32 %50, -1
  br i1 %51, label %52, label %136

52:                                               ; preds = %46
  %53 = call ptr @__errno_location() #16
  %54 = load i32, ptr %53, align 4, !tbaa !12
  %55 = icmp eq i32 %54, 18
  br i1 %55, label %56, label %130

56:                                               ; preds = %52
  call void @llvm.lifetime.start.p0(i64 144, ptr %14) #13
  call void @llvm.lifetime.start.p0(i64 4, ptr %15) #13
  %57 = call i32 @umask(i32 noundef 63) #13
  store i32 %57, ptr %15, align 4, !tbaa !12
  call void @llvm.lifetime.start.p0(i64 4, ptr %16) #13
  store i32 0, ptr %16, align 4, !tbaa !12
  %58 = load ptr, ptr %8, align 8, !tbaa !4
  %59 = load ptr, ptr %9, align 8, !tbaa !4
  %60 = call i32 @php_copy_file(ptr noundef %58, ptr noundef %59)
  %61 = icmp eq i32 %60, 0
  br i1 %61, label %62, label %120

62:                                               ; preds = %56
  %63 = load ptr, ptr %8, align 8, !tbaa !4
  %64 = call i32 @stat(ptr noundef %63, ptr noundef %14) #13
  %65 = icmp eq i32 %64, 0
  br i1 %65, label %66, label %113

66:                                               ; preds = %62
  store i32 1, ptr %16, align 4, !tbaa !12
  %67 = load ptr, ptr %9, align 8, !tbaa !4
  %68 = getelementptr inbounds nuw %struct.stat, ptr %14, i32 0, i32 4
  %69 = load i32, ptr %68, align 4, !tbaa !81
  %70 = getelementptr inbounds nuw %struct.stat, ptr %14, i32 0, i32 5
  %71 = load i32, ptr %70, align 8, !tbaa !82
  %72 = call i32 @chown(ptr noundef %67, i32 noundef %69, i32 noundef %71) #13
  %73 = icmp ne i32 %72, 0
  br i1 %73, label %74, label %85

74:                                               ; preds = %66
  %75 = load ptr, ptr %8, align 8, !tbaa !4
  %76 = load ptr, ptr %9, align 8, !tbaa !4
  %77 = call ptr @__errno_location() #16
  %78 = load i32, ptr %77, align 4, !tbaa !12
  %79 = call ptr @strerror(i32 noundef %78) #13
  call void (ptr, ptr, ptr, i32, ptr, ...) @php_error_docref2(ptr noundef null, ptr noundef %75, ptr noundef %76, i32 noundef 2, ptr noundef @.str.18, ptr noundef %79)
  %80 = call ptr @__errno_location() #16
  %81 = load i32, ptr %80, align 4, !tbaa !12
  %82 = icmp ne i32 %81, 1
  br i1 %82, label %83, label %84

83:                                               ; preds = %74
  store i32 0, ptr %16, align 4, !tbaa !12
  br label %84

84:                                               ; preds = %83, %74
  br label %85

85:                                               ; preds = %84, %66
  %86 = load i32, ptr %16, align 4, !tbaa !12
  %87 = icmp ne i32 %86, 0
  br i1 %87, label %88, label %106

88:                                               ; preds = %85
  %89 = load ptr, ptr %9, align 8, !tbaa !4
  %90 = getelementptr inbounds nuw %struct.stat, ptr %14, i32 0, i32 3
  %91 = load i32, ptr %90, align 8, !tbaa !83
  %92 = call i32 @chmod(ptr noundef %89, i32 noundef %91) #13
  %93 = icmp ne i32 %92, 0
  br i1 %93, label %94, label %105

94:                                               ; preds = %88
  %95 = load ptr, ptr %8, align 8, !tbaa !4
  %96 = load ptr, ptr %9, align 8, !tbaa !4
  %97 = call ptr @__errno_location() #16
  %98 = load i32, ptr %97, align 4, !tbaa !12
  %99 = call ptr @strerror(i32 noundef %98) #13
  call void (ptr, ptr, ptr, i32, ptr, ...) @php_error_docref2(ptr noundef null, ptr noundef %95, ptr noundef %96, i32 noundef 2, ptr noundef @.str.18, ptr noundef %99)
  %100 = call ptr @__errno_location() #16
  %101 = load i32, ptr %100, align 4, !tbaa !12
  %102 = icmp ne i32 %101, 1
  br i1 %102, label %103, label %104

103:                                              ; preds = %94
  store i32 0, ptr %16, align 4, !tbaa !12
  br label %104

104:                                              ; preds = %103, %94
  br label %105

105:                                              ; preds = %104, %88
  br label %106

106:                                              ; preds = %105, %85
  %107 = load i32, ptr %16, align 4, !tbaa !12
  %108 = icmp ne i32 %107, 0
  br i1 %108, label %109, label %112

109:                                              ; preds = %106
  %110 = load ptr, ptr %8, align 8, !tbaa !4
  %111 = call i32 @unlink(ptr noundef %110) #13
  br label %112

112:                                              ; preds = %109, %106
  br label %119

113:                                              ; preds = %62
  %114 = load ptr, ptr %8, align 8, !tbaa !4
  %115 = load ptr, ptr %9, align 8, !tbaa !4
  %116 = call ptr @__errno_location() #16
  %117 = load i32, ptr %116, align 4, !tbaa !12
  %118 = call ptr @strerror(i32 noundef %117) #13
  call void (ptr, ptr, ptr, i32, ptr, ...) @php_error_docref2(ptr noundef null, ptr noundef %114, ptr noundef %115, i32 noundef 2, ptr noundef @.str.18, ptr noundef %118)
  br label %119

119:                                              ; preds = %113, %112
  br label %126

120:                                              ; preds = %56
  %121 = load ptr, ptr %8, align 8, !tbaa !4
  %122 = load ptr, ptr %9, align 8, !tbaa !4
  %123 = call ptr @__errno_location() #16
  %124 = load i32, ptr %123, align 4, !tbaa !12
  %125 = call ptr @strerror(i32 noundef %124) #13
  call void (ptr, ptr, ptr, i32, ptr, ...) @php_error_docref2(ptr noundef null, ptr noundef %121, ptr noundef %122, i32 noundef 2, ptr noundef @.str.18, ptr noundef %125)
  br label %126

126:                                              ; preds = %120, %119
  %127 = load i32, ptr %15, align 4, !tbaa !12
  %128 = call i32 @umask(i32 noundef %127) #13
  %129 = load i32, ptr %16, align 4, !tbaa !12
  store i32 %129, ptr %6, align 4
  store i32 1, ptr %13, align 4
  call void @llvm.lifetime.end.p0(i64 4, ptr %16) #13
  call void @llvm.lifetime.end.p0(i64 4, ptr %15) #13
  call void @llvm.lifetime.end.p0(i64 144, ptr %14) #13
  br label %137

130:                                              ; preds = %52
  %131 = load ptr, ptr %8, align 8, !tbaa !4
  %132 = load ptr, ptr %9, align 8, !tbaa !4
  %133 = call ptr @__errno_location() #16
  %134 = load i32, ptr %133, align 4, !tbaa !12
  %135 = call ptr @strerror(i32 noundef %134) #13
  call void (ptr, ptr, ptr, i32, ptr, ...) @php_error_docref2(ptr noundef null, ptr noundef %131, ptr noundef %132, i32 noundef 2, ptr noundef @.str.18, ptr noundef %135)
  store i32 0, ptr %6, align 4
  store i32 1, ptr %13, align 4
  br label %137

136:                                              ; preds = %46
  call void @php_clear_stat_cache(i1 noundef zeroext true, ptr noundef null, i64 noundef 0)
  store i32 1, ptr %6, align 4
  store i32 1, ptr %13, align 4
  br label %137

137:                                              ; preds = %136, %130, %126, %45, %22
  call void @llvm.lifetime.end.p0(i64 4, ptr %12) #13
  %138 = load i32, ptr %6, align 4
  ret i32 %138
}