; Function Attrs: nounwind uwtable
define internal range(i32 0, 2) i32 @php_plain_files_rename(ptr readnone captures(none) %0, ptr noundef %1, ptr noundef %2, i32 %3, ptr readnone captures(none) %4) #3 {
  %6 = alloca %struct.stat, align 8
  %7 = icmp ne ptr %1, null
  %8 = icmp ne ptr %2, null
  %or.cond = and i1 %7, %8
  br i1 %or.cond, label %9, label %59

9:                                                ; preds = %5
  %10 = tail call i32 @strncasecmp(ptr noundef nonnull %1, ptr noundef nonnull @.str.16, i64 noundef 7) #16
  %11 = icmp eq i32 %10, 0
  %spec.select.idx = select i1 %11, i64 7, i64 0
  %spec.select = getelementptr inbounds nuw i8, ptr %1, i64 %spec.select.idx
  %12 = tail call i32 @strncasecmp(ptr noundef nonnull %2, ptr noundef nonnull @.str.16, i64 noundef 7) #16
  %13 = icmp eq i32 %12, 0
  %.034.idx = select i1 %13, i64 7, i64 0
  %.034 = getelementptr inbounds nuw i8, ptr %2, i64 %.034.idx
  %14 = tail call i32 @php_check_open_basedir(ptr noundef nonnull %spec.select) #17
  %.not = icmp eq i32 %14, 0
  br i1 %.not, label %15, label %59

15:                                               ; preds = %9
  %16 = tail call i32 @php_check_open_basedir(ptr noundef nonnull %.034) #17
  %.not38 = icmp eq i32 %16, 0
  br i1 %.not38, label %17, label %59

17:                                               ; preds = %15
  %18 = tail call i32 @rename(ptr noundef nonnull %spec.select, ptr noundef nonnull %.034) #17
  %19 = icmp eq i32 %18, -1
  br i1 %19, label %20, label %58

20:                                               ; preds = %17
  %21 = tail call ptr @__errno_location() #19
  %22 = load i32, ptr %21, align 4, !tbaa !7
  %23 = icmp eq i32 %22, 18
  br i1 %23, label %24, label %56

24:                                               ; preds = %20
  call void @llvm.lifetime.start.p0(i64 144, ptr nonnull %6) #17
  %25 = tail call i32 @umask(i32 noundef 63) #17
  %26 = tail call i32 @php_copy_file(ptr noundef nonnull %spec.select, ptr noundef nonnull %.034) #17
  %27 = icmp eq i32 %26, 0
  br i1 %27, label %28, label %52

28:                                               ; preds = %24
  %29 = call i32 @stat(ptr noundef nonnull %spec.select, ptr noundef nonnull %6) #17
  %30 = icmp eq i32 %29, 0
  br i1 %30, label %31, label %49

31:                                               ; preds = %28
  %32 = getelementptr inbounds nuw i8, ptr %6, i64 28
  %33 = load i32, ptr %32, align 4, !tbaa !59
  %34 = getelementptr inbounds nuw i8, ptr %6, i64 32
  %35 = load i32, ptr %34, align 8, !tbaa !60
  %36 = tail call i32 @chown(ptr noundef nonnull %.034, i32 noundef %33, i32 noundef %35) #17
  %.not39 = icmp eq i32 %36, 0
  br i1 %.not39, label %.critedge, label %37

37:                                               ; preds = %31
  %38 = load i32, ptr %21, align 4, !tbaa !7
  %39 = tail call ptr @strerror(i32 noundef %38) #17
  tail call void (ptr, ptr, ptr, i32, ptr, ...) @php_error_docref2(ptr noundef null, ptr noundef nonnull %spec.select, ptr noundef nonnull %.034, i32 noundef 2, ptr noundef nonnull @.str.18, ptr noundef %39) #17
  %40 = load i32, ptr %21, align 4, !tbaa !7
  %.not40.not = icmp eq i32 %40, 1
  br i1 %.not40.not, label %.critedge, label %.critedge50

.critedge:                                        ; preds = %31, %37
  %41 = getelementptr inbounds nuw i8, ptr %6, i64 24
  %42 = load i32, ptr %41, align 8, !tbaa !61
  %43 = tail call i32 @chmod(ptr noundef nonnull %.034, i32 noundef %42) #17
  %.not42 = icmp eq i32 %43, 0
  br i1 %.not42, label %.critedge48, label %44

44:                                               ; preds = %.critedge
  %45 = load i32, ptr %21, align 4, !tbaa !7
  %46 = tail call ptr @strerror(i32 noundef %45) #17
  tail call void (ptr, ptr, ptr, i32, ptr, ...) @php_error_docref2(ptr noundef null, ptr noundef nonnull %spec.select, ptr noundef nonnull %.034, i32 noundef 2, ptr noundef nonnull @.str.18, ptr noundef %46) #17
  %47 = load i32, ptr %21, align 4, !tbaa !7
  %.not43.not = icmp eq i32 %47, 1
  br i1 %.not43.not, label %.critedge48, label %.critedge50

.critedge48:                                      ; preds = %.critedge, %44
  %48 = tail call i32 @unlink(ptr noundef nonnull %spec.select) #17
  br label %.critedge50

49:                                               ; preds = %28
  %50 = load i32, ptr %21, align 4, !tbaa !7
  %51 = tail call ptr @strerror(i32 noundef %50) #17
  tail call void (ptr, ptr, ptr, i32, ptr, ...) @php_error_docref2(ptr noundef null, ptr noundef nonnull %spec.select, ptr noundef nonnull %.034, i32 noundef 2, ptr noundef nonnull @.str.18, ptr noundef %51) #17
  br label %.critedge50

52:                                               ; preds = %24
  %53 = load i32, ptr %21, align 4, !tbaa !7
  %54 = tail call ptr @strerror(i32 noundef %53) #17
  tail call void (ptr, ptr, ptr, i32, ptr, ...) @php_error_docref2(ptr noundef null, ptr noundef nonnull %spec.select, ptr noundef nonnull %.034, i32 noundef 2, ptr noundef nonnull @.str.18, ptr noundef %54) #17
  br label %.critedge50

.critedge50:                                      ; preds = %37, %49, %.critedge48, %44, %52
  %.2 = phi i32 [ 1, %.critedge48 ], [ 0, %44 ], [ 0, %49 ], [ 0, %52 ], [ 0, %37 ]
  %55 = tail call i32 @umask(i32 noundef %25) #17
  call void @llvm.lifetime.end.p0(i64 144, ptr nonnull %6) #17
  br label %59

56:                                               ; preds = %20
  %57 = tail call ptr @strerror(i32 noundef %22) #17
  tail call void (ptr, ptr, ptr, i32, ptr, ...) @php_error_docref2(ptr noundef null, ptr noundef nonnull %spec.select, ptr noundef nonnull %.034, i32 noundef 2, ptr noundef nonnull @.str.18, ptr noundef %57) #17
  br label %59

58:                                               ; preds = %17
  tail call void @php_clear_stat_cache(i1 noundef zeroext true, ptr noundef null, i64 noundef 0) #17
  br label %59

59:                                               ; preds = %9, %15, %5, %58, %56, %.critedge50
  %.032 = phi i32 [ %.2, %.critedge50 ], [ 0, %56 ], [ 1, %58 ], [ 0, %5 ], [ 0, %15 ], [ 0, %9 ]
  ret i32 %.032
}